; Function Attrs: mustprogress nofree norecurse nosync nounwind willreturn memory(read, inaccessiblemem: none) uwtable
define dso_local noundef ptr @_ZN5ImGui16FindWindowByNameEPKc(ptr noundef readonly captures(none) %0) local_unnamed_addr #31 {
  %2 = load i8, ptr %0, align 1, !tbaa !206
  %.not3343.i = icmp eq i8 %2, 0
  br i1 %.not3343.i, label %_Z9ImHashStrPKcmj.exit, label %.lr.ph.i

.lr.ph.i:                                         ; preds = %1, %12
  %3 = phi i8 [ %.pre.i, %12 ], [ %2, %1 ]
  %.345.i = phi i32 [ %19, %12 ], [ -1, %1 ]
  %.13044.i = phi ptr [ %4, %12 ], [ %0, %1 ]
  %4 = getelementptr inbounds nuw i8, ptr %.13044.i, i64 1
  %5 = zext i8 %3 to i32
  %6 = icmp eq i8 %3, 35
  %.pre.i = load i8, ptr %4, align 1, !tbaa !206
  %7 = icmp eq i8 %.pre.i, 35
  %or.cond50.i = select i1 %6, i1 %7, i1 false
  br i1 %or.cond50.i, label %8, label %12

8:                                                ; preds = %.lr.ph.i
  %9 = getelementptr inbounds nuw i8, ptr %.13044.i, i64 2
  %10 = load i8, ptr %9, align 1, !tbaa !206
  %11 = icmp eq i8 %10, 35
  %spec.select35.i = select i1 %11, i32 -1, i32 %.345.i
  br label %12

12:                                               ; preds = %8, %.lr.ph.i
  %.5.i = phi i32 [ %.345.i, %.lr.ph.i ], [ %spec.select35.i, %8 ]
  %13 = lshr i32 %.5.i, 8
  %14 = and i32 %.5.i, 255
  %15 = xor i32 %14, %5
  %16 = zext nneg i32 %15 to i64
  %17 = getelementptr inbounds nuw i32, ptr @_ZL17GCrc32LookupTable, i64 %16
  %18 = load i32, ptr %17, align 4, !tbaa !221
  %19 = xor i32 %13, %18
  %.not33.i = icmp eq i8 %.pre.i, 0
  br i1 %.not33.i, label %_Z9ImHashStrPKcmj.exit.loopexit, label %.lr.ph.i

_Z9ImHashStrPKcmj.exit.loopexit:                  ; preds = %12
  %20 = xor i32 %19, -1
  br label %_Z9ImHashStrPKcmj.exit

_Z9ImHashStrPKcmj.exit:                           ; preds = %_Z9ImHashStrPKcmj.exit.loopexit, %1
  %.2.i = phi i32 [ 0, %1 ], [ %20, %_Z9ImHashStrPKcmj.exit.loopexit ]
  %21 = load ptr, ptr @GImGui, align 8, !tbaa !211
  %22 = getelementptr inbounds nuw i8, ptr %21, i64 4896
  %23 = getelementptr inbounds nuw i8, ptr %21, i64 4904
  %24 = load ptr, ptr %23, align 8, !tbaa !275
  %25 = load i32, ptr %22, align 8, !tbaa !274
  %26 = sext i32 %25 to i64
  %27 = getelementptr inbounds %struct.ImGuiStoragePair, ptr %24, i64 %26
  %.not15.i.i.i = icmp eq i32 %25, 0
  br i1 %.not15.i.i.i, label %_Z12ImLowerBoundP16ImGuiStoragePairS0_j.exit.i.i, label %.lr.ph.i.i.i

.lr.ph.i.i.i:                                     ; preds = %_Z9ImHashStrPKcmj.exit, %.lr.ph.i.i.i
  %.017.i.i.i = phi ptr [ %.1.i.i.i, %.lr.ph.i.i.i ], [ %24, %_Z9ImHashStrPKcmj.exit ]
  %.01316.i.i.i = phi i64 [ %.114.i.i.i, %.lr.ph.i.i.i ], [ %26, %_Z9ImHashStrPKcmj.exit ]
  %28 = lshr i64 %.01316.i.i.i, 1
  %29 = getelementptr inbounds nuw %struct.ImGuiStoragePair, ptr %.017.i.i.i, i64 %28
  %30 = load i32, ptr %29, align 8, !tbaa !271
  %31 = icmp ult i32 %30, %.2.i
  %32 = getelementptr inbounds nuw i8, ptr %29, i64 16
  %.neg.i.i.i = xor i64 %28, -1
  %33 = add i64 %.01316.i.i.i, %.neg.i.i.i
  %.114.i.i.i = select i1 %31, i64 %33, i64 %28
  %.1.i.i.i = select i1 %31, ptr %32, ptr %.017.i.i.i
  %.not.i.i.i = icmp eq i64 %.114.i.i.i, 0
  br i1 %.not.i.i.i, label %_Z12ImLowerBoundP16ImGuiStoragePairS0_j.exit.i.i, label %.lr.ph.i.i.i, !llvm.loop !273

_Z12ImLowerBoundP16ImGuiStoragePairS0_j.exit.i.i: ; preds = %.lr.ph.i.i.i, %_Z9ImHashStrPKcmj.exit
  %.0.lcssa.i.i.i = phi ptr [ %24, %_Z9ImHashStrPKcmj.exit ], [ %.1.i.i.i, %.lr.ph.i.i.i ]
  %34 = icmp eq ptr %.0.lcssa.i.i.i, %27
  br i1 %34, label %_ZN5ImGui14FindWindowByIDEj.exit, label %35

35:                                               ; preds = %_Z12ImLowerBoundP16ImGuiStoragePairS0_j.exit.i.i
  %36 = load i32, ptr %.0.lcssa.i.i.i, align 8, !tbaa !271
  %.not.i.i = icmp eq i32 %36, %.2.i
  br i1 %.not.i.i, label %37, label %_ZN5ImGui14FindWindowByIDEj.exit

37:                                               ; preds = %35
  %38 = getelementptr inbounds nuw i8, ptr %.0.lcssa.i.i.i, i64 8
  %39 = load ptr, ptr %38, align 8, !tbaa !206
  br label %_ZN5ImGui14FindWindowByIDEj.exit

_ZN5ImGui14FindWindowByIDEj.exit:                 ; preds = %_Z12ImLowerBoundP16ImGuiStoragePairS0_j.exit.i.i, %35, %37
  %.0.i.i = phi ptr [ %39, %37 ], [ null, %35 ], [ null, %_Z12ImLowerBoundP16ImGuiStoragePairS0_j.exit.i.i ]
  ret ptr %.0.i.i
}